; Function Attrs: nofree norecurse nosync nounwind memory(argmem: read) uwtable
define internal i32 @pg_mule_verifystr(ptr noundef %0, i32 noundef %1) #5 {
  %3 = icmp sgt i32 %1, 0
  br i1 %3, label %.lr.ph, label %.thread

.lr.ph:                                           ; preds = %2, %.loopexit
  %.01427 = phi ptr [ %20, %.loopexit ], [ %0, %2 ]
  %.01526 = phi i32 [ %21, %.loopexit ], [ %1, %2 ]
  %4 = load i8, ptr %.01427, align 1
  %.not = icmp sgt i8 %4, -1
  br i1 %.not, label %5, label %7

5:                                                ; preds = %.lr.ph
  %6 = icmp eq i8 %4, 0
  br i1 %6, label %.thread, label %.loopexit

7:                                                ; preds = %.lr.ph
  %8 = add nsw i8 %4, 127
  %or.cond.i.i = icmp ult i8 %8, 13
  br i1 %or.cond.i.i, label %pg_mule_mblen.exit.i, label %9

9:                                                ; preds = %7
  %10 = and i8 %4, -2
  %switch.i.i = icmp eq i8 %10, -102
  %11 = add nsw i8 %4, 112
  %or.cond11.i.i = icmp ult i8 %11, 10
  %or.cond14.i.i = or i1 %switch.i.i, %or.cond11.i.i
  br i1 %or.cond14.i.i, label %pg_mule_mblen.exit.i, label %12

12:                                               ; preds = %9
  %switch13.i.i = icmp eq i8 %10, -100
  %spec.select.i.i = select i1 %switch13.i.i, i32 4, i32 1
  br label %pg_mule_mblen.exit.i

pg_mule_mblen.exit.i:                             ; preds = %12, %9, %7
  %.0.i.i = phi i32 [ 2, %7 ], [ 3, %9 ], [ %spec.select.i.i, %12 ]
  %13 = icmp samesign ult i32 %.01526, %.0.i.i
  br i1 %13, label %.thread, label %.preheader.i

.preheader.i:                                     ; preds = %pg_mule_mblen.exit.i, %15
  %.08.i = phi i32 [ %16, %15 ], [ %.0.i.i, %pg_mule_mblen.exit.i ]
  %.07.i = phi ptr [ %17, %15 ], [ %.01427, %pg_mule_mblen.exit.i ]
  %14 = icmp sgt i32 %.08.i, 1
  br i1 %14, label %15, label %.loopexit

15:                                               ; preds = %.preheader.i
  %16 = add nsw i32 %.08.i, -1
  %17 = getelementptr inbounds nuw i8, ptr %.07.i, i64 1
  %18 = load i8, ptr %17, align 1
  %.not.i = icmp sgt i8 %18, -1
  br i1 %.not.i, label %.thread, label %.preheader.i, !llvm.loop !20

.loopexit:                                        ; preds = %.preheader.i, %5
  %.013 = phi i32 [ 1, %5 ], [ %.0.i.i, %.preheader.i ]
  %19 = zext nneg i32 %.013 to i64
  %20 = getelementptr inbounds nuw i8, ptr %.01427, i64 %19
  %21 = sub i32 %.01526, %.013
  %22 = icmp sgt i32 %21, 0
  br i1 %22, label %.lr.ph, label %.thread

.thread:                                          ; preds = %.loopexit, %5, %pg_mule_mblen.exit.i, %15, %2
  %.01425 = phi ptr [ %0, %2 ], [ %.01427, %15 ], [ %20, %.loopexit ], [ %.01427, %5 ], [ %.01427, %pg_mule_mblen.exit.i ]
  %23 = ptrtoint ptr %.01425 to i64
  %24 = ptrtoint ptr %0 to i64
  %25 = sub i64 %23, %24
  %26 = trunc i64 %25 to i32
  ret i32 %26
}